target datalayout = "e-m:e-p270:32:32-p271:32:32-p272:64:64-i64:64-i128:128-f80:128-n8:16:32:64-S128"
target triple = "x86_64-unknown-linux-gnu"

%struct.USearch = type { ptr, i32, i8, i8, i16, ptr, ptr, i32, i32, i8, i8 }

; Function Attrs: mustprogress nounwind uwtable
define internal noundef i32 @_ZN12_GLOBAL__N_111codePointAtERK7USearchi(ptr noundef nonnull align 8 dereferenceable(48) %search, i32 noundef %index) #1 {
entry:
  %retval = alloca i32, align 4
  %search.addr = alloca ptr, align 8
  %index.addr = alloca i32, align 4
  %c = alloca i32, align 4
  %__c2 = alloca i16, align 2
  store ptr %search, ptr %search.addr, align 8
  store i32 %index, ptr %index.addr, align 4
  %0 = load i32, ptr %index.addr, align 4
  %1 = load ptr, ptr %search.addr, align 8
  %textLength = getelementptr inbounds %struct.USearch, ptr %1, i32 0, i32 1
  %2 = load i32, ptr %textLength, align 8
  %cmp = icmp slt i32 %0, %2
  br i1 %cmp, label %if.then, label %if.end15

if.then:                                          ; preds = %entry
  br label %do.body

do.body:                                          ; preds = %if.then
  %3 = load ptr, ptr %search.addr, align 8
  %text = getelementptr inbounds %struct.USearch, ptr %3, i32 0, i32 0
  %4 = load ptr, ptr %text, align 8
  %5 = load i32, ptr %index.addr, align 4
  %inc = add nsw i32 %5, 1
  store i32 %inc, ptr %index.addr, align 4
  %idxprom = sext i32 %5 to i64
  %arrayidx = getelementptr inbounds i16, ptr %4, i64 %idxprom
  %6 = load i16, ptr %arrayidx, align 2
  %conv = zext i16 %6 to i32
  store i32 %conv, ptr %c, align 4
  %7 = load i32, ptr %c, align 4
  %and = and i32 %7, -1024
  %cmp1 = icmp eq i32 %and, 55296
  br i1 %cmp1, label %if.then2, label %if.end14

if.then2:                                         ; preds = %do.body
  %8 = load i32, ptr %index.addr, align 4
  %9 = load ptr, ptr %search.addr, align 8
  %textLength3 = getelementptr inbounds %struct.USearch, ptr %9, i32 0, i32 1
  %10 = load i32, ptr %textLength3, align 8
  %cmp4 = icmp ne i32 %8, %10
  br i1 %cmp4, label %land.lhs.true, label %if.end

land.lhs.true:                                    ; preds = %if.then2
  %11 = load ptr, ptr %search.addr, align 8
  %text5 = getelementptr inbounds %struct.USearch, ptr %11, i32 0, i32 0
  %12 = load ptr, ptr %text5, align 8
  %13 = load i32, ptr %index.addr, align 4
  %idxprom6 = sext i32 %13 to i64
  %arrayidx7 = getelementptr inbounds i16, ptr %12, i64 %idxprom6
  %14 = load i16, ptr %arrayidx7, align 2
  store i16 %14, ptr %__c2, align 2
  %conv8 = zext i16 %14 to i32
  %and9 = and i32 %conv8, -1024
  %cmp10 = icmp eq i32 %and9, 56320
  br i1 %cmp10, label %if.then11, label %if.end

if.then11:                                        ; preds = %land.lhs.true
  %15 = load i32, ptr %index.addr, align 4
  %inc12 = add nsw i32 %15, 1
  store i32 %inc12, ptr %index.addr, align 4
  %16 = load i32, ptr %c, align 4
  %shl = shl i32 %16, 10
  %17 = load i16, ptr %__c2, align 2
  %conv13 = zext i16 %17 to i32
  %add = add nsw i32 %shl, %conv13
  %sub = sub nsw i32 %add, 56613888
  store i32 %sub, ptr %c, align 4
  br label %if.end

if.end:                                           ; preds = %if.then11, %land.lhs.true, %if.then2
  br label %if.end14

if.end14:                                         ; preds = %if.end, %do.body
  br label %do.end

do.end:                                           ; preds = %if.end14
  %18 = load i32, ptr %c, align 4
  store i32 %18, ptr %retval, align 4
  br label %return

if.end15:                                         ; preds = %entry
  store i32 -1, ptr %retval, align 4
  br label %return

return:                                           ; preds = %if.end15, %do.end
  %19 = load i32, ptr %retval, align 4
  ret i32 %19
}