; Function Attrs: mustprogress nofree norecurse nosync nounwind willreturn memory(argmem: read) uwtable
define internal fastcc noundef i32 @_ZN12_GLOBAL__N_111codePointAtERK7USearchi(ptr nocapture readonly %search.0.val, i32 %search.8.val, i32 noundef %index) unnamed_addr #8 {
entry:
  %cmp = icmp sgt i32 %search.8.val, %index
  br i1 %cmp, label %do.body, label %return

do.body:                                          ; preds = %entry
  %inc = add nsw i32 %index, 1
  %idxprom = sext i32 %index to i64
  %arrayidx = getelementptr inbounds i16, ptr %search.0.val, i64 %idxprom
  %0 = load i16, ptr %arrayidx, align 2
  %conv = zext i16 %0 to i32
  %and = and i32 %conv, 64512
  %cmp1 = icmp ne i32 %and, 55296
  %cmp4.not = icmp eq i32 %inc, %search.8.val
  %or.cond = select i1 %cmp1, i1 true, i1 %cmp4.not
  br i1 %or.cond, label %return, label %land.lhs.true

land.lhs.true:                                    ; preds = %do.body
  %idxprom6 = sext i32 %inc to i64
  %arrayidx7 = getelementptr inbounds i16, ptr %search.0.val, i64 %idxprom6
  %1 = load i16, ptr %arrayidx7, align 2
  %conv8 = zext i16 %1 to i32
  %and9 = and i32 %conv8, 64512
  %cmp10 = icmp eq i32 %and9, 56320
  br i1 %cmp10, label %if.then11, label %return

if.then11:                                        ; preds = %land.lhs.true
  %shl = shl nuw nsw i32 %conv, 10
  %add = add nsw i32 %shl, -56613888
  %sub = add nuw nsw i32 %add, %conv8
  br label %return

return:                                           ; preds = %entry, %land.lhs.true, %if.then11, %do.body
  %retval.0 = phi i32 [ %sub, %if.then11 ], [ %conv, %land.lhs.true ], [ %conv, %do.body ], [ -1, %entry ]
  ret i32 %retval.0
}